target datalayout = "e-m:e-p270:32:32-p271:32:32-p272:64:64-i64:64-i128:128-f80:128-n8:16:32:64-S128"
target triple = "x86_64-pc-linux-gnu"

%struct.mbedtls_ssl_ciphersuite_t = type { i32, ptr, i8, i8, i8, i8, i16, i16 }

; Function Attrs: nounwind uwtable
define hidden i32 @mbedtls_ssl_ciphersuite_uses_ec(ptr noundef %0) #0 {
  %2 = alloca i32, align 4
  %3 = alloca ptr, align 8
  store ptr %0, ptr %3, align 8, !tbaa !10
  %4 = load ptr, ptr %3, align 8, !tbaa !10
  %5 = getelementptr inbounds nuw %struct.mbedtls_ssl_ciphersuite_t, ptr %4, i32 0, i32 4
  %6 = load i8, ptr %5, align 2, !tbaa !25
  %7 = zext i8 %6 to i32
  switch i32 %7, label %9 [
    i32 3, label %8
    i32 4, label %8
    i32 8, label %8
    i32 9, label %8
    i32 10, label %8
    i32 11, label %8
  ]

8:                                                ; preds = %1, %1, %1, %1, %1, %1
  store i32 1, ptr %2, align 4
  br label %10

9:                                                ; preds = %1
  store i32 0, ptr %2, align 4
  br label %10

10:                                               ; preds = %9, %8
  %11 = load i32, ptr %2, align 4
  ret i32 %11
}